; Function Attrs: mustprogress uwtable
define noundef i64 @_ZN3net17QuicPacketCreator10PacketSizeEv(ptr noundef nonnull align 8 captures(none) dereferenceable(312) %0) local_unnamed_addr #0 align 2 {
  %2 = getelementptr inbounds nuw i8, ptr %0, i64 120
  %3 = load ptr, ptr %2, align 8, !tbaa !88
  %4 = getelementptr inbounds nuw i8, ptr %0, i64 128
  %5 = load ptr, ptr %4, align 8, !tbaa !88
  %6 = icmp eq ptr %3, %5
  br i1 %6, label %10, label %7

7:                                                ; preds = %1
  %8 = getelementptr inbounds nuw i8, ptr %0, i64 144
  %9 = load i64, ptr %8, align 8, !tbaa !90
  br label %40

10:                                               ; preds = %1
  %11 = load i8, ptr @FLAGS_quic_simple_packet_number_length_2, align 1, !tbaa !93, !range !94, !noundef !95
  %12 = trunc nuw i8 %11 to i1
  br i1 %12, label %._crit_edge, label %13

._crit_edge:                                      ; preds = %10
  %.phi.trans.insert = getelementptr inbounds nuw i8, ptr %0, i64 216
  %.pre = load i8, ptr %.phi.trans.insert, align 8, !tbaa !89
  br label %17

13:                                               ; preds = %10
  %14 = getelementptr inbounds nuw i8, ptr %0, i64 58
  %15 = load i8, ptr %14, align 2, !tbaa !74
  %16 = getelementptr inbounds nuw i8, ptr %0, i64 216
  store i8 %15, ptr %16, align 8, !tbaa !89
  br label %17

17:                                               ; preds = %._crit_edge, %13
  %18 = phi i8 [ %.pre, %._crit_edge ], [ %15, %13 ]
  %19 = getelementptr inbounds nuw i8, ptr %0, i64 16
  %20 = load ptr, ptr %19, align 8, !tbaa !44
  %21 = getelementptr inbounds nuw i8, ptr %20, i64 268
  %22 = load i32, ptr %21, align 4, !tbaa !101
  %23 = getelementptr inbounds nuw i8, ptr %0, i64 112
  %24 = load i32, ptr %23, align 8, !tbaa !77
  %25 = getelementptr inbounds nuw i8, ptr %0, i64 56
  %26 = load i8, ptr %25, align 8, !tbaa !72, !range !94, !noundef !95
  %27 = trunc nuw i8 %26 to i1
  %28 = getelementptr inbounds nuw i8, ptr %0, i64 57
  %29 = load i8, ptr %28, align 1, !tbaa !73, !range !94, !noundef !95
  %30 = trunc nuw i8 %29 to i1
  %31 = getelementptr inbounds nuw i8, ptr %0, i64 59
  %32 = load i8, ptr %31, align 1, !tbaa !75, !range !94, !noundef !95
  %33 = trunc nuw i8 %32 to i1
  %34 = getelementptr inbounds nuw i8, ptr %0, i64 217
  %35 = load i8, ptr %34, align 1
  %36 = icmp eq i8 %35, 1
  %37 = select i1 %33, i1 %36, i1 false
  %38 = tail call noundef i64 @_ZN3net19GetPacketHeaderSizeENS_11QuicVersionENS_22QuicConnectionIdLengthEbbbNS_22QuicPacketNumberLengthE(i32 noundef %22, i32 noundef %24, i1 noundef zeroext %27, i1 noundef zeroext %30, i1 noundef zeroext %37, i8 noundef signext %18)
  %39 = getelementptr inbounds nuw i8, ptr %0, i64 144
  store i64 %38, ptr %39, align 8, !tbaa !90
  br label %40

40:                                               ; preds = %17, %7
  %.0 = phi i64 [ %38, %17 ], [ %9, %7 ]
  ret i64 %.0
}